; Function Attrs: inlinehint mustprogress nounwind uwtable
define internal void @_ZN3net12_GLOBAL__N_114OneShotVisitorD0Ev(ptr noundef nonnull align 8 dereferenceable(17) initializes((0, 8)) %0) unnamed_addr #7 align 2 {
  store ptr getelementptr inbounds nuw inrange(-16, 32) (i8, ptr @_ZTVN3net12_GLOBAL__N_114OneShotVisitorE, i64 16), ptr %0, align 8, !tbaa !3
  %2 = getelementptr inbounds nuw i8, ptr %0, i64 8
  %3 = load ptr, ptr %2, align 8, !tbaa !64
  %.not.i.i = icmp eq ptr %3, null
  br i1 %.not.i.i, label %_ZN3net12_GLOBAL__N_114OneShotVisitorD2Ev.exit, label %_ZNKSt14default_deleteIN3net22CryptoHandshakeMessageEEclEPS1_.exit.i.i

_ZNKSt14default_deleteIN3net22CryptoHandshakeMessageEEclEPS1_.exit.i.i: ; preds = %1
  tail call void @_ZN3net22CryptoHandshakeMessageD1Ev(ptr noundef nonnull align 8 dereferenceable(72) %3) #17
  tail call void @_ZdlPv(ptr noundef nonnull %3) #16
  br label %_ZN3net12_GLOBAL__N_114OneShotVisitorD2Ev.exit

_ZN3net12_GLOBAL__N_114OneShotVisitorD2Ev.exit:   ; preds = %1, %_ZNKSt14default_deleteIN3net22CryptoHandshakeMessageEEclEPS1_.exit.i.i
  tail call void @_ZdlPv(ptr noundef nonnull %0) #16
  ret void
}